target datalayout = "e-m:e-p270:32:32-p271:32:32-p272:64:64-i64:64-i128:128-f80:128-n8:16:32:64-S128"
target triple = "x86_64-pc-linux-gnu"

@simd_support = internal thread_local global i32 -1, align 4
@jconst_ycc_rgb_convert_avx2 = external constant [0 x i32], align 4
@jconst_ycc_rgb_convert_sse2 = external constant [0 x i32], align 4

; Function Attrs: nounwind uwtable
define i32 @jsimd_can_ycc_rgb() #0 {
  %1 = alloca i32, align 4
  call void @init_simd()
  %2 = call align 4 ptr @llvm.threadlocal.address.p0(ptr align 4 @simd_support)
  %3 = load i32, ptr %2, align 4, !tbaa !3
  %4 = and i32 %3, 128
  %5 = icmp ne i32 %4, 0
  br i1 %5, label %6, label %10

6:                                                ; preds = %0
  %7 = and i64 ptrtoint (ptr @jconst_ycc_rgb_convert_avx2 to i64), 31
  %8 = icmp eq i64 %7, 0
  br i1 %8, label %9, label %10

9:                                                ; preds = %6
  store i32 1, ptr %1, align 4
  br label %20

10:                                               ; preds = %6, %0
  %11 = call align 4 ptr @llvm.threadlocal.address.p0(ptr align 4 @simd_support)
  %12 = load i32, ptr %11, align 4, !tbaa !3
  %13 = and i32 %12, 8
  %14 = icmp ne i32 %13, 0
  br i1 %14, label %15, label %19

15:                                               ; preds = %10
  %16 = and i64 ptrtoint (ptr @jconst_ycc_rgb_convert_sse2 to i64), 15
  %17 = icmp eq i64 %16, 0
  br i1 %17, label %18, label %19

18:                                               ; preds = %15
  store i32 1, ptr %1, align 4
  br label %20

19:                                               ; preds = %15, %10
  store i32 0, ptr %1, align 4
  br label %20

20:                                               ; preds = %19, %18, %9
  %21 = load i32, ptr %1, align 4
  ret i32 %21
}